(dp0
S'METTS MARK'
p1
(dp2
S'to_messages'
p3
I807
sS'deferral_payments'
p4
I0
sS'expenses'
p5
I94299
sS'poi'
p6
I00
sS'deferred_income'
p7
I0
sS'email_address'
p8
S'mark.metts@enron.com'
p9
sS'long_term_incentive'
p10
I0
sS'restricted_stock_deferred'
p11
I0
sS'shared_receipt_with_poi'
p12
I702
sS'loan_advances'
p13
I0
sS'from_messages'
p14
I29
sS'other'
p15
I1740
sS'director_fees'
p16
I0
sS'poi_email_ratio'
p17
F0.9743589743589743
sS'bonus'
p18
I600000
sS'total_stock_value'
p19
I585062
sS'from_poi_to_this_person'
p20
I38
sS'from_this_person_to_poi'
p21
I1
sS'restricted_stock'
p22
I585062
sS'salary'
p23
I365788
sS'total_payments'
p24
I1061827
sS'exercised_stock_options'
p25
I0
ssS'BAXTER JOHN C'
p26
(dp27
g3
I0
sg4
I1295738
sg5
I11200
sg6
I00
sg7
I-1386055
sg8
I0
sg10
I1586055
sg11
I0
sg12
I0
sg13
I0
sg14
I0
sg15
I2660303
sg16
I0
sg17
I0
sg18
I1200000
sg19
I10623258
sg20
I0
sg21
I0
sg22
I3942714
sg23
I267102
sg24
I5634343
sg25
I6680544
ssS'ELLIOTT STEVEN'
p28
(dp29
g3
I0
sg4
I0
sg5
I78552
sg6
I00
sg7
I-400729
sg8
S'steven.elliott@enron.com'
p30
sg10
I0
sg11
I0
sg12
I0
sg13
I0
sg14
I0
sg15
I12961
sg16
I0
sg17
I0
sg18
I350000
sg19
I6678735
sg20
I0
sg21
I0
sg22
I1788391
sg23
I170941
sg24
I211725
sg25
I4890344
ssS'CORDES WILLIAM R'
p31
(dp32
g3
I764
sg4
I0
sg5
I0
sg6
I00
sg7
I0
sg8
S'bill.cordes@enron.com'
p33
sg10
I0
sg11
I0
sg12
I58
sg13
I0
sg14
I12
sg15
I0
sg16
I0
sg17
F1.0
sg18
I0
sg19
I1038185
sg20
I10
sg21
I0
sg22
I386335
sg23
I0
sg24
I0
sg25
I651850
ssS'HANNON KEVIN P'
p34
(dp35
g3
I1045
sg4
I0
sg5
I34039
sg6
I01
sg7
I-3117011
sg8
S'kevin.hannon@enron.com'
p36
sg10
I1617011
sg11
I0
sg12
I1035
sg13
I0
sg14
I32
sg15
I11350
sg16
I0
sg17
F0.6037735849056604
sg18
I1500000
sg19
I6391065
sg20
I32
sg21
I21
sg22
I853064
sg23
I243293
sg24
I288682
sg25
I5538001
ssS'MORDAUNT KRISTINA M'
p37
(dp38
g3
I0
sg4
I0
sg5
I35018
sg6
I00
sg7
I0
sg8
S'kristina.mordaunt@enron.com'
p39
sg10
I0
sg11
I0
sg12
I0
sg13
I0
sg14
I0
sg15
I1411
sg16
I0
sg17
I0
sg18
I325000
sg19
I208510
sg20
I0
sg21
I0
sg22
I208510
sg23
I267093
sg24
I628522
sg25
I0
ssS'MEYER ROCKFORD G'
p40
(dp41
g3
I232
sg4
I1848227
sg5
I0
sg6
I00
sg7
I0
sg8
S'rockford.meyer@enron.com'
p42
sg10
I0
sg11
I0
sg12
I22
sg13
I0
sg14
I28
sg15
I0
sg16
I0
sg17
I0
sg18
I0
sg19
I955873
sg20
I0
sg21
I0
sg22
I462384
sg23
I0
sg24
I1848227
sg25
I493489
ssS'MCMAHON JEFFREY'
p43
(dp44
g3
I2355
sg4
I0
sg5
I137108
sg6
I00
sg7
I0
sg8
S'jeffrey.mcmahon@enron.com'
p45
sg10
I694862
sg11
I0
sg12
I2228
sg13
I0
sg14
I48
sg15
I297353
sg16
I0
sg17
F0.6904761904761905
sg18
I2600000
sg19
I1662855
sg20
I58
sg21
I26
sg22
I558801
sg23
I370448
sg24
I4099771
sg25
I1104054
ssS'HORTON STANLEY C'
p46
(dp47
g3
I2350
sg4
I3131860
sg5
I0
sg6
I00
sg7
I0
sg8
S'stanley.horton@enron.com'
p48
sg10
I0
sg11
I0
sg12
I1074
sg13
I0
sg14
I1073
sg15
I0
sg16
I0
sg17
F0.7457627118644068
sg18
I0
sg19
I7256648
sg20
I44
sg21
I15
sg22
I2046079
sg23
I0
sg24
I3131860
sg25
I5210569
ssS'PIPER GREGORY F'
p49
(dp50
g3
I1238
sg4
I1130036
sg5
I43057
sg6
I00
sg7
I-33333
sg8
S'greg.piper@enron.com'
p51
sg10
I0
sg11
I-409554
sg12
I742
sg13
I0
sg14
I222
sg15
I778
sg16
I0
sg17
F0.5596330275229358
sg18
I400000
sg19
I880290
sg20
I61
sg21
I48
sg22
I409554
sg23
I197091
sg24
I1737629
sg25
I880290
ssS'HUMPHREY GENE E'
p52
(dp53
g3
I128
sg4
I2964506
sg5
I4994
sg6
I00
sg7
I0
sg8
S'gene.humphrey@enron.com'
p54
sg10
I0
sg11
I0
sg12
I119
sg13
I0
sg14
I17
sg15
I0
sg16
I0
sg17
F0.37037037037037035
sg18
I0
sg19
I2282768
sg20
I10
sg21
I17
sg22
I0
sg23
I130724
sg24
I3100224
sg25
I2282768
ssS'UMANOFF ADAM S'
p55
(dp56
g3
I111
sg4
I0
sg5
I53122
sg6
I00
sg7
I0
sg8
S'adam.umanoff@enron.com'
p57
sg10
I0
sg11
I0
sg12
I41
sg13
I0
sg14
I18
sg15
I0
sg16
I0
sg17
F1.0
sg18
I788750
sg19
I0
sg20
I12
sg21
I0
sg22
I0
sg23
I288589
sg24
I1130461
sg25
I0
ssS'BLACHMAN JEREMY M'
p58
(dp59
g3
I2475
sg4
I0
sg5
I84208
sg6
I00
sg7
I0
sg8
S'jeremy.blachman@enron.com'
p60
sg10
I831809
sg11
I0
sg12
I2326
sg13
I0
sg14
I14
sg15
I272
sg16
I0
sg17
F0.9259259259259259
sg18
I850000
sg19
I954354
sg20
I25
sg21
I2
sg22
I189041
sg23
I248546
sg24
I2014835
sg25
I765313
ssS'SUNDE MARTIN'
p61
(dp62
g3
I2647
sg4
I0
sg5
I0
sg6
I00
sg7
I0
sg8
S'marty.sunde@enron.com'
p63
sg10
I476451
sg11
I0
sg12
I2565
sg13
I0
sg14
I38
sg15
I111122
sg16
I0
sg17
F0.74
sg18
I700000
sg19
I698920
sg20
I37
sg21
I13
sg22
I698920
sg23
I257486
sg24
I1545059
sg25
I0
ssS'GIBBS DANA R'
p64
(dp65
g3
I169
sg4
I504610
sg5
I0
sg6
I00
sg7
I0
sg8
S'dana.gibbs@enron.com'
p66
sg10
I461912
sg11
I0
sg12
I23
sg13
I0
sg14
I12
sg15
I0
sg16
I0
sg17
I0
sg18
I0
sg19
I2218275
sg20
I0
sg21
I0
sg22
I0
sg23
I0
sg24
I966522
sg25
I2218275
ssS'LOWRY CHARLES P'
p67
(dp68
g3
I0
sg4
I0
sg5
I0
sg6
I00
sg7
I0
sg8
I0
sg10
I0
sg11
I-153686
sg12
I0
sg13
I0
sg14
I0
sg15
I0
sg16
I0
sg17
I0
sg18
I0
sg19
I372205
sg20
I0
sg21
I0
sg22
I153686
sg23
I0
sg24
I0
sg25
I372205
ssS'COLWELL WESLEY'
p69
(dp70
g3
I1758
sg4
I27610
sg5
I16514
sg6
I01
sg7
I-144062
sg8
S'wes.colwell@enron.com'
p71
sg10
I0
sg11
I0
sg12
I1132
sg13
I0
sg14
I40
sg15
I101740
sg16
I0
sg17
F0.9561752988047809
sg18
I1200000
sg19
I698242
sg20
I240
sg21
I11
sg22
I698242
sg23
I288542
sg24
I1490344
sg25
I0
ssS'MULLER MARK S'
p72
(dp73
g3
I136
sg4
I842924
sg5
I0
sg6
I00
sg7
I-719000
sg8
S's..muller@enron.com'
p74
sg10
I1725545
sg11
I0
sg12
I114
sg13
I0
sg14
I16
sg15
I947
sg16
I0
sg17
F1.0
sg18
I1100000
sg19
I1416848
sg20
I12
sg21
I0
sg22
I360528
sg23
I251654
sg24
I3202070
sg25
I1056320
ssS'JACKSON CHARLENE R'
p75
(dp76
g3
I258
sg4
I0
sg5
I10181
sg6
I00
sg7
I0
sg8
S'charlene.jackson@enron.com'
p77
sg10
I0
sg11
I0
sg12
I117
sg13
I0
sg14
I56
sg15
I2435
sg16
I0
sg17
F0.5681818181818182
sg18
I250000
sg19
I725735
sg20
I25
sg21
I19
sg22
I540672
sg23
I288558
sg24
I551174
sg25
I185063
ssS'WESTFAHL RICHARD K'
p78
(dp79
g3
I0
sg4
I0
sg5
I51870
sg6
I00
sg7
I-10800
sg8
S'dick.westfahl@enron.com'
p80
sg10
I256191
sg11
I0
sg12
I0
sg13
I0
sg14
I0
sg15
I401130
sg16
I0
sg17
I0
sg18
I0
sg19
I384930
sg20
I0
sg21
I0
sg22
I384930
sg23
I63744
sg24
I762135
sg25
I0
ssS'WALTERS GARETH W'
p81
(dp82
g3
I0
sg4
I53625
sg5
I33785
sg6
I00
sg7
I0
sg8
I0
sg10
I0
sg11
I0
sg12
I0
sg13
I0
sg14
I0
sg15
I0
sg16
I0
sg17
I0
sg18
I0
sg19
I1030329
sg20
I0
sg21
I0
sg22
I0
sg23
I0
sg24
I87410
sg25
I1030329
ssS'WALLS JR ROBERT H'
p83
(dp84
g3
I671
sg4
I0
sg5
I50936
sg6
I00
sg7
I0
sg8
S'rob.walls@enron.com'
p85
sg10
I540751
sg11
I0
sg12
I215
sg13
I0
sg14
I146
sg15
I2
sg16
I0
sg17
F1.0
sg18
I850000
sg19
I5898997
sg20
I17
sg21
I0
sg22
I1552453
sg23
I357091
sg24
I1798780
sg25
I4346544
ssS'KITCHEN LOUISE'
p86
(dp87
g3
I8305
sg4
I0
sg5
I5774
sg6
I00
sg7
I0
sg8
S'louise.kitchen@enron.com'
p88
sg10
I0
sg11
I0
sg12
I3669
sg13
I0
sg14
I1728
sg15
I93925
sg16
I0
sg17
F0.5640449438202247
sg18
I3100000
sg19
I547143
sg20
I251
sg21
I194
sg22
I466101
sg23
I271442
sg24
I3471141
sg25
I81042
ssS'CHAN RONNIE'
p89
(dp90
g3
I0
sg4
I0
sg5
I0
sg6
I00
sg7
I-98784
sg8
I0
sg10
I0
sg11
I-32460
sg12
I0
sg13
I0
sg14
I0
sg15
I0
sg16
I98784
sg17
I0
sg18
I0
sg19
I0
sg20
I0
sg21
I0
sg22
I32460
sg23
I0
sg24
I0
sg25
I0
ssS'BELFER ROBERT'
p91
(dp92
g3
I0
sg4
I-102500
sg5
I0
sg6
I00
sg7
I0
sg8
I0
sg10
I0
sg11
I44093
sg12
I0
sg13
I0
sg14
I0
sg15
I0
sg16
I3285
sg17
I0
sg18
I0
sg19
I-44093
sg20
I0
sg21
I0
sg22
I0
sg23
I0
sg24
I102500
sg25
I3285
ssS'SHANKMAN JEFFREY A'
p93
(dp94
g3
I3221
sg4
I0
sg5
I178979
sg6
I00
sg7
I0
sg8
S'jeffrey.shankman@enron.com'
p95
sg10
I554422
sg11
I0
sg12
I1730
sg13
I0
sg14
I2681
sg15
I1191
sg16
I0
sg17
F0.5310734463276836
sg18
I2000000
sg19
I2072035
sg20
I94
sg21
I83
sg22
I630137
sg23
I304110
sg24
I3038702
sg25
I1441898
ssS'WODRASKA JOHN'
p96
(dp97
g3
I0
sg4
I0
sg5
I0
sg6
I00
sg7
I0
sg8
S'john.wodraska@enron.com'
p98
sg10
I0
sg11
I0
sg12
I0
sg13
I0
sg14
I0
sg15
I189583
sg16
I0
sg17
I0
sg18
I0
sg19
I0
sg20
I0
sg21
I0
sg22
I0
sg23
I0
sg24
I189583
sg25
I0
ssS'BERGSIEKER RICHARD P'
p99
(dp100
g3
I383
sg4
I0
sg5
I59175
sg6
I00
sg7
I-485813
sg8
S'rick.bergsieker@enron.com'
p101
sg10
I180250
sg11
I0
sg12
I233
sg13
I0
sg14
I59
sg15
I427316
sg16
I0
sg17
F1.0
sg18
I250000
sg19
I659249
sg20
I4
sg21
I0
sg22
I659249
sg23
I187922
sg24
I618850
sg25
I0
ssS'URQUHART JOHN A'
p102
(dp103
g3
I0
sg4
I0
sg5
I228656
sg6
I00
sg7
I-36666
sg8
I0
sg10
I0
sg11
I0
sg12
I0
sg13
I0
sg14
I0
sg15
I0
sg16
I36666
sg17
I0
sg18
I0
sg19
I0
sg20
I0
sg21
I0
sg22
I0
sg23
I0
sg24
I228656
sg25
I0
ssS'BIBI PHILIPPE A'
p104
(dp105
g3
I1607
sg4
I0
sg5
I38559
sg6
I00
sg7
I0
sg8
S'philippe.bibi@enron.com'
p106
sg10
I369721
sg11
I0
sg12
I1336
sg13
I0
sg14
I40
sg15
I425688
sg16
I0
sg17
F0.7419354838709677
sg18
I1000000
sg19
I1843816
sg20
I23
sg21
I8
sg22
I378082
sg23
I213625
sg24
I2047593
sg25
I1465734
ssS'RIEKER PAULA H'
p107
(dp108
g3
I1328
sg4
I214678
sg5
I33271
sg6
I01
sg7
I-100000
sg8
S'paula.rieker@enron.com'
p109
sg10
I0
sg11
I0
sg12
I1258
sg13
I0
sg14
I82
sg15
I1950
sg16
I0
sg17
F0.42168674698795183
sg18
I700000
sg19
I1918887
sg20
I35
sg21
I48
sg22
I283649
sg23
I249201
sg24
I1099100
sg25
I1635238
ssS'WHALEY DAVID A'
p110
(dp111
g3
I0
sg4
I0
sg5
I0
sg6
I00
sg7
I0
sg8
I0
sg10
I0
sg11
I0
sg12
I0
sg13
I0
sg14
I0
sg15
I0
sg16
I0
sg17
I0
sg18
I0
sg19
I98718
sg20
I0
sg21
I0
sg22
I0
sg23
I0
sg24
I0
sg25
I98718
ssS'BECK SALLY W'
p112
(dp113
g3
I7315
sg4
I0
sg5
I37172
sg6
I00
sg7
I0
sg8
S'sally.beck@enron.com'
p114
sg10
I0
sg11
I0
sg12
I2639
sg13
I0
sg14
I4343
sg15
I566
sg16
I0
sg17
F0.27169811320754716
sg18
I700000
sg19
I126027
sg20
I144
sg21
I386
sg22
I126027
sg23
I231330
sg24
I969068
sg25
I0
ssS'HAUG DAVID L'
p115
(dp116
g3
I573
sg4
I0
sg5
I475
sg6
I00
sg7
I0
sg8
S'david.haug@enron.com'
p117
sg10
I0
sg11
I0
sg12
I471
sg13
I0
sg14
I19
sg15
I0
sg16
I0
sg17
F0.36363636363636365
sg18
I0
sg19
I2217299
sg20
I4
sg21
I7
sg22
I2217299
sg23
I0
sg24
I475
sg25
I0
ssS'ECHOLS JOHN B'
p118
(dp119
g3
I0
sg4
I0
sg5
I21530
sg6
I00
sg7
I0
sg8
S'john.echols@enron.com'
p120
sg10
I2234774
sg11
I0
sg12
I0
sg13
I0
sg14
I0
sg15
I53775
sg16
I0
sg17
I0
sg18
I200000
sg19
I1008941
sg20
I0
sg21
I0
sg22
I407503
sg23
I182245
sg24
I2692324
sg25
I601438
ssS'MENDELSOHN JOHN'
p121
(dp122
g3
I0
sg4
I0
sg5
I148
sg6
I00
sg7
I-103750
sg8
I0
sg10
I0
sg11
I0
sg12
I0
sg13
I0
sg14
I0
sg15
I0
sg16
I103750
sg17
I0
sg18
I0
sg19
I0
sg20
I0
sg21
I0
sg22
I0
sg23
I0
sg24
I148
sg25
I0
ssS'HICKERSON GARY J'
p123
(dp124
g3
I1320
sg4
I0
sg5
I98849
sg6
I00
sg7
I0
sg8
S'gary.hickerson@enron.com'
p125
sg10
I69223
sg11
I0
sg12
I900
sg13
I0
sg14
I27
sg15
I1936
sg16
I0
sg17
F0.975609756097561
sg18
I1700000
sg19
I441096
sg20
I40
sg21
I1
sg22
I441096
sg23
I211788
sg24
I2081796
sg25
I0
ssS'CLINE KENNETH W'
p126
(dp127
g3
I0
sg4
I0
sg5
I0
sg6
I00
sg7
I0
sg8
I0
sg10
I0
sg11
I-472568
sg12
I0
sg13
I0
sg14
I0
sg15
I0
sg16
I0
sg17
I0
sg18
I0
sg19
I189518
sg20
I0
sg21
I0
sg22
I662086
sg23
I0
sg24
I0
sg25
I0
ssS'LEWIS RICHARD'
p128
(dp129
g3
I952
sg4
I0
sg5
I0
sg6
I00
sg7
I0
sg8
S'richard.lewis@enron.com'
p130
sg10
I0
sg11
I0
sg12
I739
sg13
I0
sg14
I26
sg15
I0
sg16
I0
sg17
F1.0
sg18
I0
sg19
I850477
sg20
I10
sg21
I0
sg22
I0
sg23
I0
sg24
I0
sg25
I850477
ssS'HAYES ROBERT E'
p131
(dp132
g3
I504
sg4
I7961
sg5
I0
sg6
I00
sg7
I0
sg8
S'robert.hayes@enron.com'
p133
sg10
I0
sg11
I0
sg12
I50
sg13
I0
sg14
I12
sg15
I0
sg16
I0
sg17
F1.0
sg18
I0
sg19
I151418
sg20
I16
sg21
I0
sg22
I151418
sg23
I0
sg24
I7961
sg25
I0
ssS'MCCARTY DANNY J'
p134
(dp135
g3
I1433
sg4
I0
sg5
I0
sg6
I00
sg7
I0
sg8
S'danny.mccarty@enron.com'
p136
sg10
I0
sg11
I0
sg12
I508
sg13
I0
sg14
I215
sg15
I0
sg16
I0
sg17
F0.9259259259259259
sg18
I0
sg19
I758931
sg20
I25
sg21
I2
sg22
I94556
sg23
I0
sg24
I0
sg25
I664375
ssS'KOPPER MICHAEL J'
p137
(dp138
g3
I0
sg4
I0
sg5
I118134
sg6
I01
sg7
I0
sg8
S'michael.kopper@enron.com'
p139
sg10
I602671
sg11
I0
sg12
I0
sg13
I0
sg14
I0
sg15
I907502
sg16
I0
sg17
I0
sg18
I800000
sg19
I985032
sg20
I0
sg21
I0
sg22
I985032
sg23
I224305
sg24
I2652612
sg25
I0
ssS'LEFF DANIEL P'
p140
(dp141
g3
I2822
sg4
I0
sg5
I0
sg6
I00
sg7
I0
sg8
S'dan.leff@enron.com'
p142
sg10
I1387399
sg11
I0
sg12
I2672
sg13
I0
sg14
I63
sg15
I3083
sg16
I0
sg17
F0.8271604938271605
sg18
I1000000
sg19
I360528
sg20
I67
sg21
I14
sg22
I360528
sg23
I273746
sg24
I2664228
sg25
I0
ssS'LAVORATO JOHN J'
p143
(dp144
g3
I7259
sg4
I0
sg5
I49537
sg6
I00
sg7
I0
sg8
S'john.lavorato@enron.com'
p145
sg10
I2035380
sg11
I0
sg12
I3962
sg13
I0
sg14
I2585
sg15
I1552
sg16
I0
sg17
F0.5623003194888179
sg18
I8000000
sg19
I5167144
sg20
I528
sg21
I411
sg22
I1008149
sg23
I339288
sg24
I10425757
sg25
I4158995
ssS'BERBERIAN DAVID'
p146
(dp147
g3
I0
sg4
I0
sg5
I11892
sg6
I00
sg7
I0
sg8
S'david.berberian@enron.com'
p148
sg10
I0
sg11
I0
sg12
I0
sg13
I0
sg14
I0
sg15
I0
sg16
I0
sg17
I0
sg18
I0
sg19
I2493616
sg20
I0
sg21
I0
sg22
I869220
sg23
I216582
sg24
I228474
sg25
I1624396
ssS'DETMERING TIMOTHY J'
p149
(dp150
g3
I0
sg4
I875307
sg5
I52255
sg6
I00
sg7
I-775241
sg8
S'timothy.detmering@enron.com'
p151
sg10
I415657
sg11
I-315068
sg12
I0
sg13
I0
sg14
I0
sg15
I1105
sg16
I0
sg17
I0
sg18
I425000
sg19
I2027865
sg20
I0
sg21
I0
sg22
I315068
sg23
I210500
sg24
I1204583
sg25
I2027865
ssS'WAKEHAM JOHN'
p152
(dp153
g3
I0
sg4
I0
sg5
I103773
sg6
I00
sg7
I0
sg8
I0
sg10
I0
sg11
I0
sg12
I0
sg13
I0
sg14
I0
sg15
I0
sg16
I109298
sg17
I0
sg18
I0
sg19
I0
sg20
I0
sg21
I0
sg22
I0
sg23
I0
sg24
I213071
sg25
I0
ssS'POWERS WILLIAM'
p154
(dp155
g3
I653
sg4
I0
sg5
I0
sg6
I00
sg7
I-17500
sg8
S'ken.powers@enron.com'
p156
sg10
I0
sg11
I0
sg12
I12
sg13
I0
sg14
I26
sg15
I0
sg16
I17500
sg17
I0
sg18
I0
sg19
I0
sg20
I0
sg21
I0
sg22
I0
sg23
I0
sg24
I0
sg25
I0
ssS'GOLD JOSEPH'
p157
(dp158
g3
I0
sg4
I0
sg5
I0
sg6
I00
sg7
I0
sg8
S'joe.gold@enron.com'
p159
sg10
I304805
sg11
I0
sg12
I0
sg13
I0
sg14
I0
sg15
I819288
sg16
I0
sg17
I0
sg18
I750000
sg19
I877611
sg20
I0
sg21
I0
sg22
I441096
sg23
I272880
sg24
I2146973
sg25
I436515
ssS'BANNANTINE JAMES M'
p160
(dp161
g3
I566
sg4
I0
sg5
I56301
sg6
I00
sg7
I-5104
sg8
S'james.bannantine@enron.com'
p162
sg10
I0
sg11
I-560222
sg12
I465
sg13
I0
sg14
I29
sg15
I864523
sg16
I0
sg17
F1.0
sg18
I0
sg19
I5243487
sg20
I39
sg21
I0
sg22
I1757552
sg23
I477
sg24
I916197
sg25
I4046157
ssS'DUNCAN JOHN H'
p163
(dp164
g3
I0
sg4
I0
sg5
I0
sg6
I00
sg7
I-25000
sg8
I0
sg10
I0
sg11
I0
sg12
I0
sg13
I0
sg14
I0
sg15
I0
sg16
I102492
sg17
I0
sg18
I0
sg19
I371750
sg20
I0
sg21
I0
sg22
I0
sg23
I0
sg24
I77492
sg25
I371750
ssS'SHAPIRO RICHARD S'
p165
(dp166
g3
I15149
sg4
I0
sg5
I137767
sg6
I00
sg7
I0
sg8
S'richard.shapiro@enron.com'
p167
sg10
I0
sg11
I0
sg12
I4527
sg13
I0
sg14
I1215
sg15
I705
sg16
I0
sg17
F0.5323741007194245
sg18
I650000
sg19
I987001
sg20
I74
sg21
I65
sg22
I379164
sg23
I269076
sg24
I1057548
sg25
I607837
ssS'SHERRIFF JOHN R'
p168
(dp169
g3
I3187
sg4
I0
sg5
I0
sg6
I00
sg7
I0
sg8
S'john.sherriff@enron.com'
p170
sg10
I554422
sg11
I0
sg12
I2103
sg13
I0
sg14
I92
sg15
I1852186
sg16
I0
sg17
F0.5490196078431373
sg18
I1500000
sg19
I3128982
sg20
I28
sg21
I23
sg22
I1293424
sg23
I428780
sg24
I4335388
sg25
I1835558
ssS'SHELBY REX'
p171
(dp172
g3
I225
sg4
I0
sg5
I22884
sg6
I01
sg7
I-4167
sg8
S'rex.shelby@enron.com'
p173
sg10
I0
sg11
I0
sg12
I91
sg13
I0
sg14
I39
sg15
I1573324
sg16
I0
sg17
F0.48148148148148145
sg18
I200000
sg19
I2493616
sg20
I13
sg21
I14
sg22
I869220
sg23
I211844
sg24
I2003885
sg25
I1624396
ssS'LEMAISTRE CHARLES'
p174
(dp175
g3
I0
sg4
I0
sg5
I0
sg6
I00
sg7
I-25000
sg8
I0
sg10
I0
sg11
I0
sg12
I0
sg13
I0
sg14
I0
sg15
I0
sg16
I112492
sg17
I0
sg18
I0
sg19
I412878
sg20
I0
sg21
I0
sg22
I0
sg23
I0
sg24
I87492
sg25
I412878
ssS'DEFFNER JOSEPH M'
p176
(dp177
g3
I714
sg4
I0
sg5
I41626
sg6
I00
sg7
I0
sg8
S'joseph.deffner@enron.com'
p178
sg10
I335349
sg11
I0
sg12
I552
sg13
I0
sg14
I74
sg15
I25553
sg16
I0
sg17
F0.9663865546218487
sg18
I600000
sg19
I159211
sg20
I115
sg21
I4
sg22
I141833
sg23
I206121
sg24
I1208649
sg25
I17378
ssS'KISHKILL JOSEPH G'
p179
(dp180
g3
I0
sg4
I0
sg5
I116335
sg6
I00
sg7
I-51042
sg8
S'joe.kishkill@enron.com'
p181
sg10
I0
sg11
I0
sg12
I0
sg13
I0
sg14
I0
sg15
I465357
sg16
I0
sg17
I0
sg18
I0
sg19
I1034346
sg20
I0
sg21
I0
sg22
I1034346
sg23
I174246
sg24
I704896
sg25
I0
ssS'WHALLEY LAWRENCE G'
p182
(dp183
g3
I6019
sg4
I0
sg5
I57838
sg6
I00
sg7
I0
sg8
S'greg.whalley@enron.com'
p184
sg10
I808346
sg11
I0
sg12
I3920
sg13
I0
sg14
I556
sg15
I301026
sg16
I0
sg17
F0.8857142857142857
sg18
I3000000
sg19
I6079137
sg20
I186
sg21
I24
sg22
I2796177
sg23
I510364
sg24
I4677574
sg25
I3282960
ssS'MCCONNELL MICHAEL S'
p185
(dp186
g3
I3329
sg4
I0
sg5
I81364
sg6
I00
sg7
I0
sg8
S'mike.mcconnell@enron.com'
p187
sg10
I554422
sg11
I0
sg12
I2189
sg13
I0
sg14
I2742
sg15
I540
sg16
I0
sg17
F0.32167832167832167
sg18
I1100000
sg19
I3101279
sg20
I92
sg21
I194
sg22
I1478269
sg23
I365038
sg24
I2101364
sg25
I1623010
ssS'PIRO JIM'
p188
(dp189
g3
I58
sg4
I0
sg5
I0
sg6
I00
sg7
I0
sg8
S'jim.piro@enron.com'
p190
sg10
I0
sg11
I0
sg12
I3
sg13
I0
sg14
I16
sg15
I0
sg16
I0
sg17
I0
sg18
I0
sg19
I47304
sg20
I0
sg21
I1
sg22
I47304
sg23
I0
sg24
I0
sg25
I0
ssS'DELAINEY DAVID W'
p191
(dp192
g3
I3093
sg4
I0
sg5
I86174
sg6
I01
sg7
I0
sg8
S'david.delainey@enron.com'
p193
sg10
I1294981
sg11
I0
sg12
I2097
sg13
I0
sg14
I3069
sg15
I1661
sg16
I0
sg17
F0.09777777777777778
sg18
I3000000
sg19
I3614261
sg20
I66
sg21
I609
sg22
I1323148
sg23
I365163
sg24
I4747979
sg25
I2291113
ssS'SULLIVAN-SHAKLOVITZ COLLEEN'
p194
(dp195
g3
I0
sg4
I181993
sg5
I0
sg6
I00
sg7
I0
sg8
I0
sg10
I554422
sg11
I0
sg12
I0
sg13
I0
sg14
I0
sg15
I162
sg16
I0
sg17
I0
sg18
I100000
sg19
I1362375
sg20
I0
sg21
I0
sg22
I0
sg23
I162779
sg24
I999356
sg25
I1362375
ssS'WROBEL BRUCE'
p196
(dp197
g3
I0
sg4
I0
sg5
I0
sg6
I00
sg7
I0
sg8
I0
sg10
I0
sg11
I0
sg12
I0
sg13
I0
sg14
I0
sg15
I0
sg16
I0
sg17
I0
sg18
I0
sg19
I139130
sg20
I0
sg21
I0
sg22
I0
sg23
I0
sg24
I0
sg25
I139130
ssS'LINDHOLM TOD A'
p198
(dp199
g3
I0
sg4
I204075
sg5
I57727
sg6
I00
sg7
I0
sg8
S'tod.lindholm@enron.com'
p200
sg10
I175000
sg11
I0
sg12
I0
sg13
I0
sg14
I0
sg15
I2630
sg16
I0
sg17
I0
sg18
I200000
sg19
I3064208
sg20
I0
sg21
I0
sg22
I514847
sg23
I236457
sg24
I875889
sg25
I2549361
ssS'MEYER JEROME J'
p201
(dp202
g3
I0
sg4
I0
sg5
I2151
sg6
I00
sg7
I-38346
sg8
I0
sg10
I0
sg11
I0
sg12
I0
sg13
I0
sg14
I0
sg15
I0
sg16
I38346
sg17
I0
sg18
I0
sg19
I0
sg20
I0
sg21
I0
sg22
I0
sg23
I0
sg24
I2151
sg25
I0
ssS'LAY KENNETH L'
p203
(dp204
g3
I4273
sg4
I202911
sg5
I99832
sg6
I01
sg7
I-300000
sg8
S'kenneth.lay@enron.com'
p205
sg10
I3600000
sg11
I0
sg12
I2411
sg13
I81525000
sg14
I36
sg15
I10359729
sg16
I0
sg17
F0.8848920863309353
sg18
I7000000
sg19
I49110078
sg20
I123
sg21
I16
sg22
I14761694
sg23
I1072321
sg24
I103559793
sg25
I34348384
ssS'BUTTS ROBERT H'
p206
(dp207
g3
I0
sg4
I0
sg5
I9410
sg6
I00
sg7
I-75000
sg8
S'bob.butts@enron.com'
p208
sg10
I175000
sg11
I0
sg12
I0
sg13
I0
sg14
I0
sg15
I150656
sg16
I0
sg17
I0
sg18
I750000
sg19
I417619
sg20
I0
sg21
I0
sg22
I417619
sg23
I261516
sg24
I1271582
sg25
I0
ssS'OLSON CINDY K'
p209
(dp210
g3
I1184
sg4
I77716
sg5
I63791
sg6
I00
sg7
I0
sg8
S'cindy.olson@enron.com'
p211
sg10
I100000
sg11
I0
sg12
I856
sg13
I0
sg14
I52
sg15
I972
sg16
I0
sg17
F0.5714285714285714
sg18
I750000
sg19
I2606763
sg20
I20
sg21
I15
sg22
I969729
sg23
I329078
sg24
I1321557
sg25
I1637034
ssS'MCDONALD REBECCA'
p212
(dp213
g3
I894
sg4
I0
sg5
I0
sg6
I00
sg7
I0
sg8
S'rebecca.mcdonald@enron.com'
p214
sg10
I0
sg11
I0
sg12
I720
sg13
I0
sg14
I13
sg15
I0
sg16
I0
sg17
F0.9818181818181818
sg18
I0
sg19
I1691366
sg20
I54
sg21
I1
sg22
I934065
sg23
I0
sg24
I0
sg25
I757301
ssS'CUMBERLAND MICHAEL S'
p215
(dp216
g3
I0
sg4
I0
sg5
I22344
sg6
I00
sg7
I0
sg8
I0
sg10
I275000
sg11
I0
sg12
I0
sg13
I0
sg14
I0
sg15
I713
sg16
I0
sg17
I0
sg18
I325000
sg19
I207940
sg20
I0
sg21
I0
sg22
I207940
sg23
I184899
sg24
I807956
sg25
I0
ssS'GAHN ROBERT S'
p217
(dp218
g3
I0
sg4
I73122
sg5
I50080
sg6
I00
sg7
I-1042
sg8
I0
sg10
I0
sg11
I0
sg12
I0
sg13
I0
sg14
I0
sg15
I76547
sg16
I0
sg17
I0
sg18
I509870
sg19
I318607
sg20
I0
sg21
I0
sg22
I235370
sg23
I192008
sg24
I900585
sg25
I83237
ssS'MCCLELLAN GEORGE'
p219
(dp220
g3
I1744
sg4
I0
sg5
I228763
sg6
I00
sg7
I-125000
sg8
S'george.mcclellan@enron.com'
p221
sg10
I0
sg11
I0
sg12
I1469
sg13
I0
sg14
I49
sg15
I51587
sg16
I0
sg17
F1.0
sg18
I900000
sg19
I947861
sg20
I52
sg21
I0
sg22
I441096
sg23
I263413
sg24
I1318763
sg25
I506765
ssS'HERMANN ROBERT J'
p222
(dp223
g3
I0
sg4
I0
sg5
I48357
sg6
I00
sg7
I-280000
sg8
S'robert.hermann@enron.com'
p224
sg10
I150000
sg11
I0
sg12
I0
sg13
I0
sg14
I0
sg15
I416441
sg16
I0
sg17
I0
sg18
I700000
sg19
I668132
sg20
I0
sg21
I0
sg22
I480632
sg23
I262663
sg24
I1297461
sg25
I187500
ssS'SCRIMSHAW MATTHEW'
p225
(dp226
g3
I0
sg4
I0
sg5
I0
sg6
I00
sg7
I0
sg8
S'matthew.scrimshaw@enron.com'
p227
sg10
I0
sg11
I0
sg12
I0
sg13
I0
sg14
I0
sg15
I0
sg16
I0
sg17
I0
sg18
I0
sg19
I759557
sg20
I0
sg21
I0
sg22
I0
sg23
I0
sg24
I0
sg25
I759557
ssS'GATHMANN WILLIAM D'
p228
(dp229
g3
I0
sg4
I0
sg5
I0
sg6
I00
sg7
I0
sg8
I0
sg10
I0
sg11
I-72419
sg12
I0
sg13
I0
sg14
I0
sg15
I0
sg16
I0
sg17
I0
sg18
I0
sg19
I1945360
sg20
I0
sg21
I0
sg22
I264013
sg23
I0
sg24
I0
sg25
I1753766
ssS'HAEDICKE MARK E'
p230
(dp231
g3
I4009
sg4
I2157527
sg5
I76169
sg6
I00
sg7
I-934484
sg8
S'mark.haedicke@enron.com'
p232
sg10
I983346
sg11
I-329825
sg12
I1847
sg13
I0
sg14
I1941
sg15
I52382
sg16
I0
sg17
F0.7468879668049793
sg18
I1150000
sg19
I803094
sg20
I180
sg21
I61
sg22
I524169
sg23
I374125
sg24
I3859065
sg25
I608750
ssS'BOWEN JR RAYMOND M'
p233
(dp234
g3
I1858
sg4
I0
sg5
I65907
sg6
I01
sg7
I-833
sg8
S'raymond.bowen@enron.com'
p235
sg10
I974293
sg11
I0
sg12
I1593
sg13
I0
sg14
I27
sg15
I1621
sg16
I0
sg17
F0.9032258064516129
sg18
I1350000
sg19
I252055
sg20
I140
sg21
I15
sg22
I252055
sg23
I278601
sg24
I2669589
sg25
I0
ssS'GILLIS JOHN'
p236
(dp237
g3
I0
sg4
I0
sg5
I0
sg6
I00
sg7
I0
sg8
I0
sg10
I0
sg11
I0
sg12
I0
sg13
I0
sg14
I0
sg15
I0
sg16
I0
sg17
I0
sg18
I0
sg19
I85641
sg20
I0
sg21
I0
sg22
I75838
sg23
I0
sg24
I0
sg25
I9803
ssS'FITZGERALD JAY L'
p238
(dp239
g3
I936
sg4
I0
sg5
I23870
sg6
I00
sg7
I0
sg8
S'jay.fitzgerald@enron.com'
p240
sg10
I556416
sg11
I0
sg12
I723
sg13
I0
sg14
I16
sg15
I285414
sg16
I0
sg17
F0.1111111111111111
sg18
I350000
sg19
I1621236
sg20
I1
sg21
I8
sg22
I956775
sg23
I199157
sg24
I1414857
sg25
I664461
ssS'MORAN MICHAEL P'
p241
(dp242
g3
I672
sg4
I0
sg5
I0
sg6
I00
sg7
I0
sg8
S'michael.moran@enron.com'
p243
sg10
I0
sg11
I0
sg12
I127
sg13
I0
sg14
I19
sg15
I0
sg16
I0
sg17
I0
sg18
I0
sg19
I221141
sg20
I0
sg21
I0
sg22
I161602
sg23
I0
sg24
I0
sg25
I59539
ssS'REDMOND BRIAN L'
p244
(dp245
g3
I1671
sg4
I0
sg5
I14689
sg6
I00
sg7
I0
sg8
S'brian.redmond@enron.com'
p246
sg10
I0
sg11
I0
sg12
I1063
sg13
I0
sg14
I221
sg15
I0
sg16
I0
sg17
F0.8063241106719368
sg18
I0
sg19
I7890324
sg20
I204
sg21
I49
sg22
I381285
sg23
I96840
sg24
I111529
sg25
I7509039
ssS'BAZELIDES PHILIP J'
p247
(dp248
g3
I0
sg4
I684694
sg5
I0
sg6
I00
sg7
I0
sg8
I0
sg10
I93750
sg11
I0
sg12
I0
sg13
I0
sg14
I0
sg15
I874
sg16
I0
sg17
I0
sg18
I0
sg19
I1599641
sg20
I0
sg21
I0
sg22
I0
sg23
I80818
sg24
I860136
sg25
I1599641
ssS'BELDEN TIMOTHY N'
p249
(dp250
g3
I7991
sg4
I2144013
sg5
I17355
sg6
I01
sg7
I-2334434
sg8
S'tim.belden@enron.com'
p251
sg10
I0
sg11
I0
sg12
I5521
sg13
I0
sg14
I484
sg15
I210698
sg16
I0
sg17
F0.6785714285714286
sg18
I5249999
sg19
I1110705
sg20
I228
sg21
I108
sg22
I157569
sg23
I213999
sg24
I5501630
sg25
I953136
ssS'DURAN WILLIAM D'
p252
(dp253
g3
I904
sg4
I0
sg5
I25785
sg6
I00
sg7
I0
sg8
S'w.duran@enron.com'
p254
sg10
I1105218
sg11
I0
sg12
I599
sg13
I0
sg14
I12
sg15
I1568
sg16
I0
sg17
F0.9724770642201835
sg18
I750000
sg19
I1640910
sg20
I106
sg21
I3
sg22
I189041
sg23
I210692
sg24
I2093263
sg25
I1451869
ssS'THORN TERENCE H'
p255
(dp256
g3
I266
sg4
I16586
sg5
I46145
sg6
I00
sg7
I0
sg8
S'terence.thorn@enron.com'
p257
sg10
I200000
sg11
I0
sg12
I73
sg13
I0
sg14
I41
sg15
I426629
sg16
I0
sg17
I0
sg18
I0
sg19
I4817796
sg20
I0
sg21
I0
sg22
I365320
sg23
I222093
sg24
I911453
sg25
I4452476
ssS'FASTOW ANDREW S'
p258
(dp259
g3
I0
sg4
I0
sg5
I55921
sg6
I01
sg7
I-1386055
sg8
S'andrew.fastow@enron.com'
p260
sg10
I1736055
sg11
I0
sg12
I0
sg13
I0
sg14
I0
sg15
I277464
sg16
I0
sg17
I0
sg18
I1300000
sg19
I1794412
sg20
I0
sg21
I0
sg22
I1794412
sg23
I440698
sg24
I2424083
sg25
I0
ssS'FOY JOE'
p261
(dp262
g3
I57
sg4
I181755
sg5
I0
sg6
I00
sg7
I0
sg8
S'tracy.foy@enron.com'
p263
sg10
I0
sg11
I0
sg12
I2
sg13
I0
sg14
I13
sg15
I0
sg16
I0
sg17
I0
sg18
I0
sg19
I343434
sg20
I0
sg21
I0
sg22
I0
sg23
I0
sg24
I181755
sg25
I343434
ssS'CALGER CHRISTOPHER F'
p264
(dp265
g3
I2598
sg4
I0
sg5
I35818
sg6
I01
sg7
I-262500
sg8
S'christopher.calger@enron.com'
p266
sg10
I375304
sg11
I0
sg12
I2188
sg13
I0
sg14
I144
sg15
I486
sg16
I0
sg17
F0.8883928571428571
sg18
I1250000
sg19
I126027
sg20
I199
sg21
I25
sg22
I126027
sg23
I240189
sg24
I1639297
sg25
I0
ssS'RICE KENNETH D'
p267
(dp268
g3
I905
sg4
I0
sg5
I46950
sg6
I01
sg7
I-3504386
sg8
S'ken.rice@enron.com'
p269
sg10
I1617011
sg11
I0
sg12
I864
sg13
I0
sg14
I18
sg15
I174839
sg16
I0
sg17
F0.9130434782608695
sg18
I1750000
sg19
I22542539
sg20
I42
sg21
I4
sg22
I2748364
sg23
I420636
sg24
I505050
sg25
I19794175
ssS'KAMINSKI WINCENTY J'
p270
(dp271
g3
I4607
sg4
I0
sg5
I83585
sg6
I00
sg7
I0
sg8
S'vince.kaminski@enron.com'
p272
sg10
I323466
sg11
I0
sg12
I583
sg13
I0
sg14
I14368
sg15
I4669
sg16
I0
sg17
F0.19339622641509435
sg18
I400000
sg19
I976037
sg20
I41
sg21
I171
sg22
I126027
sg23
I275101
sg24
I1086821
sg25
I850010
ssS'COX DAVID'
p273
(dp274
g3
I102
sg4
I0
sg5
I27861
sg6
I00
sg7
I-41250
sg8
S'chip.cox@enron.com'
p275
sg10
I0
sg11
I0
sg12
I71
sg13
I0
sg14
I33
sg15
I494
sg16
I0
sg17
I0
sg18
I800000
sg19
I495633
sg20
I0
sg21
I4
sg22
I378082
sg23
I314288
sg24
I1101393
sg25
I117551
ssS'OVERDYKE JR JERE C'
p276
(dp277
g3
I0
sg4
I0
sg5
I18834
sg6
I00
sg7
I0
sg8
S'jere.overdyke@enron.com'
p278
sg10
I135836
sg11
I0
sg12
I0
sg13
I0
sg14
I0
sg15
I176
sg16
I0
sg17
I0
sg18
I0
sg19
I7307594
sg20
I0
sg21
I0
sg22
I2041016
sg23
I94941
sg24
I249787
sg25
I5266578
ssS'PEREIRA PAULO V. FERRAZ'
p279
(dp280
g3
I0
sg4
I0
sg5
I27942
sg6
I00
sg7
I-101250
sg8
I0
sg10
I0
sg11
I0
sg12
I0
sg13
I0
sg14
I0
sg15
I0
sg16
I101250
sg17
I0
sg18
I0
sg19
I0
sg20
I0
sg21
I0
sg22
I0
sg23
I0
sg24
I27942
sg25
I0
ssS'STABLER FRANK'
p281
(dp282
g3
I0
sg4
I0
sg5
I16514
sg6
I00
sg7
I0
sg8
S'frank.stabler@enron.com'
p283
sg10
I0
sg11
I0
sg12
I0
sg13
I0
sg14
I0
sg15
I356071
sg16
I0
sg17
I0
sg18
I500000
sg19
I511734
sg20
I0
sg21
I0
sg22
I511734
sg23
I239502
sg24
I1112087
sg25
I0
ssS'SKILLING JEFFREY K'
p284
(dp285
g3
I3627
sg4
I0
sg5
I29336
sg6
I01
sg7
I0
sg8
S'jeff.skilling@enron.com'
p286
sg10
I1920000
sg11
I0
sg12
I2042
sg13
I0
sg14
I108
sg15
I22122
sg16
I0
sg17
F0.7457627118644068
sg18
I5600000
sg19
I26093672
sg20
I88
sg21
I30
sg22
I6843672
sg23
I1111258
sg24
I8682716
sg25
I19250000
ssS'BLAKE JR. NORMAN P'
p287
(dp288
g3
I0
sg4
I0
sg5
I1279
sg6
I00
sg7
I-113784
sg8
I0
sg10
I0
sg11
I0
sg12
I0
sg13
I0
sg14
I0
sg15
I0
sg16
I113784
sg17
I0
sg18
I0
sg19
I0
sg20
I0
sg21
I0
sg22
I0
sg23
I0
sg24
I1279
sg25
I0
ssS'SHERRICK JEFFREY B'
p289
(dp290
g3
I613
sg4
I0
sg5
I0
sg6
I00
sg7
I0
sg8
S'jeffrey.sherrick@enron.com'
p291
sg10
I0
sg11
I0
sg12
I583
sg13
I0
sg14
I25
sg15
I0
sg16
I0
sg17
F0.6842105263157895
sg18
I0
sg19
I1832468
sg20
I39
sg21
I18
sg22
I405999
sg23
I0
sg24
I0
sg25
I1426469
ssS'PRENTICE JAMES'
p292
(dp293
g3
I0
sg4
I564348
sg5
I0
sg6
I00
sg7
I0
sg8
S'james.prentice@enron.com'
p294
sg10
I0
sg11
I0
sg12
I0
sg13
I0
sg14
I0
sg15
I0
sg16
I0
sg17
I0
sg18
I0
sg19
I1095040
sg20
I0
sg21
I0
sg22
I208809
sg23
I0
sg24
I564348
sg25
I886231
ssS'GRAY RODNEY'
p295
(dp296
g3
I0
sg4
I93585
sg5
I0
sg6
I00
sg7
I0
sg8
I0
sg10
I365625
sg11
I0
sg12
I0
sg13
I0
sg14
I0
sg15
I680833
sg16
I0
sg17
I0
sg18
I0
sg19
I0
sg20
I0
sg21
I0
sg22
I0
sg23
I6615
sg24
I1146658
sg25
I0
ssS'PICKERING MARK R'
p297
(dp298
g3
I898
sg4
I0
sg5
I31653
sg6
I00
sg7
I0
sg8
S'mark.pickering@enron.com'
p299
sg10
I0
sg11
I0
sg12
I728
sg13
I400000
sg14
I67
sg15
I0
sg16
I0
sg17
F1.0
sg18
I300000
sg19
I28798
sg20
I7
sg21
I0
sg22
I0
sg23
I655037
sg24
I1386690
sg25
I28798
ssS'NOLES JAMES L'
p300
(dp301
g3
I0
sg4
I774401
sg5
I0
sg6
I00
sg7
I0
sg8
I0
sg10
I0
sg11
I-94556
sg12
I0
sg13
I0
sg14
I0
sg15
I0
sg16
I0
sg17
I0
sg18
I0
sg19
I368705
sg20
I0
sg21
I0
sg22
I463261
sg23
I0
sg24
I774401
sg25
I0
ssS'KEAN STEVEN J'
p302
(dp303
g3
I12754
sg4
I0
sg5
I41953
sg6
I00
sg7
I0
sg8
S'steven.kean@enron.com'
p304
sg10
I300000
sg11
I0
sg12
I3639
sg13
I0
sg14
I6759
sg15
I1231
sg16
I0
sg17
F0.2656546489563567
sg18
I1000000
sg19
I6153642
sg20
I140
sg21
I387
sg22
I4131594
sg23
I404338
sg24
I1747522
sg25
I2022048
ssS'FOWLER PEGGY'
p305
(dp306
g3
I517
sg4
I0
sg5
I0
sg6
I00
sg7
I0
sg8
S'kulvinder.fowler@enron.com'
p307
sg10
I0
sg11
I0
sg12
I10
sg13
I0
sg14
I36
sg15
I0
sg16
I0
sg17
I0
sg18
I0
sg19
I1884748
sg20
I0
sg21
I0
sg22
I560170
sg23
I0
sg24
I0
sg25
I1324578
ssS'WASAFF GEORGE'
p308
(dp309
g3
I400
sg4
I831299
sg5
I0
sg6
I00
sg7
I-583325
sg8
S'george.wasaff@enron.com'
p310
sg10
I200000
sg11
I0
sg12
I337
sg13
I0
sg14
I30
sg15
I1425
sg16
I0
sg17
F0.7586206896551724
sg18
I325000
sg19
I2056427
sg20
I22
sg21
I7
sg22
I388167
sg23
I259996
sg24
I1034395
sg25
I1668260
ssS'WHITE JR THOMAS E'
p311
(dp312
g3
I0
sg4
I0
sg5
I81353
sg6
I00
sg7
I0
sg8
S'thomas.white@enron.com'
p313
sg10
I0
sg11
I0
sg12
I0
sg13
I0
sg14
I0
sg15
I1085463
sg16
I0
sg17
I0
sg18
I450000
sg19
I15144123
sg20
I0
sg21
I0
sg22
I13847074
sg23
I317543
sg24
I1934359
sg25
I1297049
ssS'CHRISTODOULOU DIOMEDES'
p314
(dp315
g3
I0
sg4
I0
sg5
I0
sg6
I00
sg7
I0
sg8
S'diomedes.christodoulou@enron.com'
p316
sg10
I0
sg11
I0
sg12
I0
sg13
I0
sg14
I0
sg15
I0
sg16
I0
sg17
I0
sg18
I0
sg19
I6077885
sg20
I0
sg21
I0
sg22
I950730
sg23
I0
sg24
I0
sg25
I5127155
ssS'ALLEN PHILLIP K'
p317
(dp318
g3
I2902
sg4
I2869717
sg5
I13868
sg6
I00
sg7
I-3081055
sg8
S'phillip.allen@enron.com'
p319
sg10
I304805
sg11
I-126027
sg12
I1407
sg13
I0
sg14
I2195
sg15
I152
sg16
I0
sg17
F0.41964285714285715
sg18
I4175000
sg19
I1729541
sg20
I47
sg21
I65
sg22
I126027
sg23
I201955
sg24
I4484442
sg25
I1729541
ssS'SHARP VICTORIA T'
p320
(dp321
g3
I3136
sg4
I187469
sg5
I116337
sg6
I00
sg7
I0
sg8
S'vicki.sharp@enron.com'
p322
sg10
I422158
sg11
I0
sg12
I2477
sg13
I0
sg14
I136
sg15
I2401
sg16
I0
sg17
F0.8
sg18
I600000
sg19
I494136
sg20
I24
sg21
I6
sg22
I213063
sg23
I248146
sg24
I1576511
sg25
I281073
ssS'JAEDICKE ROBERT'
p323
(dp324
g3
I0
sg4
I0
sg5
I0
sg6
I00
sg7
I-25000
sg8
I0
sg10
I0
sg11
I-44093
sg12
I0
sg13
I0
sg14
I0
sg15
I0
sg16
I108750
sg17
I0
sg18
I0
sg19
I431750
sg20
I0
sg21
I0
sg22
I44093
sg23
I0
sg24
I83750
sg25
I431750
ssS'WINOKUR JR. HERBERT S'
p325
(dp326
g3
I0
sg4
I0
sg5
I1413
sg6
I00
sg7
I-25000
sg8
I0
sg10
I0
sg11
I0
sg12
I0
sg13
I0
sg14
I0
sg15
I0
sg16
I108579
sg17
I0
sg18
I0
sg19
I0
sg20
I0
sg21
I0
sg22
I0
sg23
I0
sg24
I84992
sg25
I0
ssS'BROWN MICHAEL'
p327
(dp328
g3
I1486
sg4
I0
sg5
I49288
sg6
I00
sg7
I0
sg8
S'michael.brown@enron.com'
p329
sg10
I0
sg11
I0
sg12
I761
sg13
I0
sg14
I41
sg15
I0
sg16
I0
sg17
F0.9285714285714286
sg18
I0
sg19
I0
sg20
I13
sg21
I1
sg22
I0
sg23
I0
sg24
I49288
sg25
I0
ssS'BADUM JAMES P'
p330
(dp331
g3
I0
sg4
I178980
sg5
I3486
sg6
I00
sg7
I0
sg8
I0
sg10
I0
sg11
I0
sg12
I0
sg13
I0
sg14
I0
sg15
I0
sg16
I0
sg17
I0
sg18
I0
sg19
I257817
sg20
I0
sg21
I0
sg22
I0
sg23
I0
sg24
I182466
sg25
I257817
ssS'HUGHES JAMES A'
p332
(dp333
g3
I719
sg4
I0
sg5
I0
sg6
I00
sg7
I0
sg8
S'james.hughes@enron.com'
p334
sg10
I0
sg11
I0
sg12
I589
sg13
I0
sg14
I34
sg15
I0
sg16
I0
sg17
F0.875
sg18
I0
sg19
I1118394
sg20
I35
sg21
I5
sg22
I363428
sg23
I0
sg24
I0
sg25
I754966
ssS'REYNOLDS LAWRENCE'
p335
(dp336
g3
I0
sg4
I51365
sg5
I8409
sg6
I00
sg7
I-200000
sg8
I0
sg10
I156250
sg11
I-140264
sg12
I0
sg13
I0
sg14
I0
sg15
I202052
sg16
I0
sg17
I0
sg18
I100000
sg19
I4221891
sg20
I0
sg21
I0
sg22
I201483
sg23
I76399
sg24
I394475
sg25
I4160672
ssS'DIMICHELE RICHARD G'
p337
(dp338
g3
I0
sg4
I0
sg5
I35812
sg6
I00
sg7
I0
sg8
S'richard.dimichele@enron.com'
p339
sg10
I694862
sg11
I0
sg12
I0
sg13
I0
sg14
I0
sg15
I374689
sg16
I0
sg17
I0
sg18
I1000000
sg19
I8317782
sg20
I0
sg21
I0
sg22
I126027
sg23
I262788
sg24
I2368151
sg25
I8191755
ssS'BHATNAGAR SANJAY'
p340
(dp341
g3
I523
sg4
I0
sg5
I0
sg6
I00
sg7
I0
sg8
S'sanjay.bhatnagar@enron.com'
p342
sg10
I0
sg11
I15456290
sg12
I463
sg13
I0
sg14
I29
sg15
I137864
sg16
I137864
sg17
I0
sg18
I0
sS'total_stock_value'
p343
I0
sg20
I0
sg21
I1
sg22
I-2604490
sg23
I0
sg24
I15456290
sg25
I2604490
ssS'CARTER REBECCA C'
p344
(dp345
g3
I312
sg4
I0
sg5
I0
sg6
I00
sg7
I-159792
sg8
S'rebecca.carter@enron.com'
p346
sg10
I75000
sg11
I-307301
sg12
I196
sg13
I0
sg14
I15
sg15
I540
sg16
I0
sg17
F0.8055555555555556
sg18
I300000
sg19
I0
sg20
I29
sg21
I7
sg22
I307301
sg23
I261809
sg24
I477557
sg25
I0
ssS'BUCHANAN HAROLD G'
p347
(dp348
g3
I1088
sg4
I0
sg5
I600
sg6
I00
sg7
I0
sg8
S'john.buchanan@enron.com'
p349
sg10
I304805
sg11
I0
sg12
I23
sg13
I0
sg14
I125
sg15
I1215
sg16
I0
sg17
I0
sg18
I500000
sg19
I1014505
sg20
I0
sg21
I0
sg22
I189041
sg23
I248017
sg24
I1054637
sg25
I825464
ssS'YEAP SOON'
p350
(dp351
g3
I0
sg4
I0
sg5
I55097
sg6
I00
sg7
I0
sg8
I0
sg10
I0
sg11
I0
sg12
I0
sg13
I0
sg14
I0
sg15
I0
sg16
I0
sg17
I0
sg18
I0
sg19
I192758
sg20
I0
sg21
I0
sg22
I0
sg23
I0
sg24
I55097
sg25
I192758
ssS'MURRAY JULIA H'
p352
(dp353
g3
I2192
sg4
I0
sg5
I57580
sg6
I00
sg7
I0
sg8
S'julia.murray@enron.com'
p354
sg10
I125000
sg11
I0
sg12
I395
sg13
I0
sg14
I45
sg15
I330
sg16
I0
sg17
F0.8461538461538461
sg18
I400000
sg19
I597461
sg20
I11
sg21
I2
sg22
I196983
sg23
I229284
sg24
I812194
sg25
I400478
ssS'GARLAND C KEVIN'
p355
(dp356
g3
I209
sg4
I0
sg5
I48405
sg6
I00
sg7
I0
sg8
S'kevin.garland@enron.com'
p357
sg10
I375304
sg11
I0
sg12
I178
sg13
I0
sg14
I44
sg15
I60814
sg16
I0
sg17
F0.2702702702702703
sg18
I850000
sg19
I896153
sg20
I10
sg21
I27
sg22
I259907
sg23
I231946
sg24
I1566469
sg25
I636246
ssS'DODSON KEITH'
p358
(dp359
g3
I176
sg4
I0
sg5
I28164
sg6
I00
sg7
I0
sg8
S'keith.dodson@enron.com'
p360
sg10
I0
sg11
I0
sg12
I114
sg13
I0
sg14
I14
sg15
I774
sg16
I0
sg17
F0.7692307692307693
sg18
I70000
sg19
I0
sg20
I10
sg21
I3
sg22
I0
sg23
I221003
sg24
I319941
sg25
I0
ssS'YEAGER F SCOTT'
p361
(dp362
g3
I0
sg4
I0
sg5
I53947
sg6
I01
sg7
I0
sg8
S'scott.yeager@enron.com'
p363
sg10
I0
sg11
I0
sg12
I0
sg13
I0
sg14
I0
sg15
I147950
sg16
I0
sg17
I0
sg18
I0
sg19
I11884758
sg20
I0
sg21
I0
sg22
I3576206
sg23
I158403
sg24
I360300
sg25
I8308552
ssS'HIRKO JOSEPH'
p364
(dp365
g3
I0
sg4
I10259
sg5
I77978
sg6
I01
sg7
I0
sg8
S'joe.hirko@enron.com'
p366
sg10
I0
sg11
I0
sg12
I0
sg13
I0
sg14
I0
sg15
I2856
sg16
I0
sg17
I0
sg18
I0
sg19
I30766064
sg20
I0
sg21
I0
sg22
I0
sg23
I0
sg24
I91093
sg25
I30766064
ssS'DIETRICH JANET R'
p367
(dp368
g3
I2572
sg4
I0
sg5
I3475
sg6
I00
sg7
I0
sg8
S'janet.dietrich@enron.com'
p369
sg10
I556416
sg11
I0
sg12
I1902
sg13
I0
sg14
I63
sg15
I473
sg16
I0
sg17
F0.9561128526645768
sg18
I600000
sg19
I1865087
sg20
I305
sg21
I14
sg22
I315068
sg23
I250100
sg24
I1410464
sg25
I1550019
ssS'DERRICK JR. JAMES V'
p370
(dp371
g3
I2181
sg4
I0
sg5
I51124
sg6
I00
sg7
I-1284000
sg8
S'james.derrick@enron.com'
p372
sg10
I484000
sg11
I-1787380
sg12
I1401
sg13
I0
sg14
I909
sg15
I7482
sg16
I0
sg17
F0.7619047619047619
sg18
I800000
sg19
I8831913
sg20
I64
sg21
I20
sg22
I1787380
sg23
I492375
sg24
I550981
sg25
I8831913
ssS'FREVERT MARK A'
p373
(dp374
g3
I3275
sg4
I6426990
sg5
I86987
sg6
I00
sg7
I-3367011
sg8
S'mark.frevert@enron.com'
p375
sg10
I1617011
sg11
I0
sg12
I2979
sg13
I2000000
sg14
I21
sg15
I7427621
sg16
I0
sg17
F0.9758064516129032
sg18
I2000000
sg19
I14622185
sg20
I242
sg21
I6
sg22
I4188667
sg23
I1060932
sg24
I17252530
sg25
I10433518
ssS'PAI LOU L'
p376
(dp377
g3
I0
sg4
I0
sg5
I32047
sg6
I00
sg7
I0
sg8
S'lou.pai@enron.com'
p378
sg10
I0
sg11
I0
sg12
I0
sg13
I0
sg14
I0
sg15
I1829457
sg16
I0
sg17
I0
sg18
I1000000
sg19
I23817930
sg20
I0
sg21
I0
sg22
I8453763
sg23
I261879
sg24
I3123383
sg25
I15364167
ssS'BAY FRANKLIN R'
p379
(dp380
g3
I0
sg4
I260455
sg5
I129142
sg6
I00
sg7
I-201641
sg8
S'frank.bay@enron.com'
p381
sg10
I0
sg11
I-82782
sg12
I0
sg13
I0
sg14
I0
sg15
I69
sg16
I0
sg17
I0
sg18
I400000
sg19
I63014
sg20
I0
sg21
I0
sg22
I145796
sg23
I239671
sg24
I827696
sg25
I0
ssS'HAYSLETT RODERICK J'
p382
(dp383
g3
I2649
sg4
I0
sg5
I0
sg6
I00
sg7
I0
sg8
S'rod.hayslett@enron.com'
p384
sg10
I0
sg11
I0
sg12
I571
sg13
I0
sg14
I1061
sg15
I0
sg16
I0
sg17
F0.4794520547945205
sg18
I0
sg19
I346663
sg20
I35
sg21
I38
sg22
I346663
sg23
I0
sg24
I0
sg25
I0
ssS'FUGH JOHN L'
p385
(dp386
g3
I0
sg4
I50591
sg5
I0
sg6
I00
sg7
I0
sg8
I0
sg10
I0
sg11
I0
sg12
I0
sg13
I0
sg14
I0
sg15
I0
sg16
I0
sg17
I0
sg18
I0
sg19
I176378
sg20
I0
sg21
I0
sg22
I0
sg23
I0
sg24
I50591
sg25
I176378
ssS'FALLON JAMES B'
p387
(dp388
g3
I1755
sg4
I0
sg5
I95924
sg6
I00
sg7
I0
sg8
S'jim.fallon@enron.com'
p389
sg10
I374347
sg11
I0
sg12
I1604
sg13
I0
sg14
I75
sg15
I401481
sg16
I0
sg17
F0.5316455696202531
sg18
I2500000
sg19
I2332399
sg20
I42
sg21
I37
sg22
I1392142
sg23
I304588
sg24
I3676340
sg25
I940257
ssS'KOENIG MARK E'
p390
(dp391
g3
I2374
sg4
I0
sg5
I127017
sg6
I01
sg7
I0
sg8
S'mark.koenig@enron.com'
p392
sg10
I300000
sg11
I0
sg12
I2271
sg13
I0
sg14
I61
sg15
I150458
sg16
I0
sg17
F0.7794117647058824
sg18
I700000
sg19
I1920055
sg20
I53
sg21
I15
sg22
I1248318
sg23
I309946
sg24
I1587421
sg25
I671737
ssS'SAVAGE FRANK'
p393
(dp394
g3
I0
sg4
I0
sg5
I0
sg6
I00
sg7
I-121284
sg8
I0
sg10
I0
sg11
I0
sg12
I0
sg13
I0
sg14
I0
sg15
I0
sg16
I125034
sg17
I0
sg18
I0
sg19
I0
sg20
I0
sg21
I0
sg22
I0
sg23
I0
sg24
I3750
sg25
I0
ssS'IZZO LAWRENCE L'
p395
(dp396
g3
I496
sg4
I0
sg5
I28093
sg6
I00
sg7
I0
sg8
S'larry.izzo@enron.com'
p397
sg10
I312500
sg11
I0
sg12
I437
sg13
I0
sg14
I19
sg15
I1553729
sg16
I0
sg17
F0.8484848484848485
sg18
I0
sg19
I5819980
sg20
I28
sg21
I5
sg22
I3654808
sg23
I85274
sg24
I1979596
sg25
I2165172
ssS'TILNEY ELIZABETH A'
p398
(dp399
g3
I460
sg4
I0
sg5
I0
sg6
I00
sg7
I-575000
sg8
S'elizabeth.tilney@enron.com'
p400
sg10
I275000
sg11
I0
sg12
I379
sg13
I0
sg14
I19
sg15
I152055
sg16
I0
sg17
F0.47619047619047616
sg18
I300000
sg19
I1168042
sg20
I10
sg21
I11
sg22
I576792
sg23
I247338
sg24
I399393
sg25
I591250
ssS'MARTIN AMANDA K'
p401
(dp402
g3
I1522
sg4
I85430
sg5
I8211
sg6
I00
sg7
I0
sg8
S'a..martin@enron.com'
p403
sg10
I5145434
sg11
I0
sg12
I477
sg13
I0
sg14
I230
sg15
I2818454
sg16
I0
sg17
F1.0
sg18
I0
sg19
I2070306
sg20
I8
sg21
I0
sg22
I0
sg23
I349487
sg24
I8407016
sg25
I2070306
ssS'BUY RICHARD B'
p404
(dp405
g3
I3523
sg4
I649584
sg5
I0
sg6
I00
sg7
I-694862
sg8
S'rick.buy@enron.com'
p406
sg10
I769862
sg11
I0
sg12
I2333
sg13
I0
sg14
I1053
sg15
I400572
sg16
I0
sg17
F0.6872246696035242
sg18
I900000
sg19
I3444470
sg20
I156
sg21
I71
sg22
I901657
sg23
I330546
sg24
I2355702
sg25
I2542813
ssS'GRAMM WENDY L'
p407
(dp408
g3
I0
sg4
I0
sg5
I0
sg6
I00
sg7
I0
sg8
I0
sg10
I0
sg11
I0
sg12
I0
sg13
I0
sg14
I0
sg15
I0
sg16
I119292
sg17
I0
sg18
I0
sg19
I0
sg20
I0
sg21
I0
sg22
I0
sg23
I0
sg24
I119292
sg25
I0
ssS'CAUSEY RICHARD A'
p409
(dp410
g3
I1892
sg4
I0
sg5
I30674
sg6
I01
sg7
I-235000
sg8
S'richard.causey@enron.com'
p411
sg10
I350000
sg11
I0
sg12
I1585
sg13
I0
sg14
I49
sg15
I307895
sg16
I0
sg17
F0.8285714285714286
sg18
I1000000
sg19
I2502063
sg20
I58
sg21
I12
sg22
I2502063
sg23
I415189
sg24
I1868758
sg25
I0
ssS'TAYLOR MITCHELL S'
p412
(dp413
g3
I533
sg4
I227449
sg5
I0
sg6
I00
sg7
I0
sg8
S'mitchell.taylor@enron.com'
p414
sg10
I0
sg11
I0
sg12
I300
sg13
I0
sg14
I29
sg15
I0
sg16
I0
sg17
I0
sg18
I600000
sg19
I3745048
sg20
I0
sg21
I0
sg22
I563798
sg23
I265214
sg24
I1092663
sg25
I3181250
ssS'DONAHUE JR JEFFREY M'
p415
(dp416
g3
I865
sg4
I0
sg5
I96268
sg6
I00
sg7
I-300000
sg8
S'jeff.donahue@enron.com'
p417
sg10
I0
sg11
I0
sg12
I772
sg13
I0
sg14
I22
sg15
I891
sg16
I0
sg17
F0.9447236180904522
sg18
I800000
sg19
I1080988
sg20
I188
sg21
I11
sg22
I315068
sg23
I278601
sg24
I875760
sg25
I765920
ssS'GLISAN JR BEN F'
p418
(dp419
g3
I873
sg4
I0
sg5
I125978
sg6
I01
sg7
I0
sg8
S'ben.glisan@enron.com'
p420
sg10
I71023
sg11
I0
sg12
I874
sg13
I0
sg14
I16
sg15
I200308
sg16
I0
sg17
F0.896551724137931
sg18
I600000
sg19
I778546
sg20
I52
sg21
I6
sg22
I393818
sg23
I274975
sg24
I1272284
sg25
I384728
ss.